; ModuleID = '2/5.c'
source_filename = "2/5.c"
target datalayout = "e-m:e-p270:32:32-p271:32:32-p272:64:64-i64:64-f80:128-n8:16:32:64-S128"
target triple = "x86_64-pc-linux-gnu"

%struct.as = type { i32, [26 x i8] }

@__const.main.c = private unnamed_addr constant [27 x i8] c"ABCDEFGHIJKLMNOPQRSTUVWXYZ\00", align 16
@.str = private unnamed_addr constant [3 x i8] c"%d\00", align 1
@.str.1 = private unnamed_addr constant [6 x i8] c"%d %s\00", align 1
@.str.2 = private unnamed_addr constant [4 x i8] c"%c\0A\00", align 1
@.str.3 = private unnamed_addr constant [4 x i8] c"%d\0A\00", align 1

; Function Attrs: noinline nounwind uwtable
define dso_local i32 @main() #0 {
  %1 = alloca i32, align 4
  %2 = alloca i32, align 4
  %3 = alloca i32, align 4
  %4 = alloca i32, align 4
  %5 = alloca i32, align 4
  %6 = alloca i32, align 4
  %7 = alloca i32, align 4
  %8 = alloca i32, align 4
  %9 = alloca i32, align 4
  %10 = alloca [26 x i32], align 16
  %11 = alloca [27 x i8], align 16
  %12 = alloca [1000 x %struct.as], align 16
  store i32 0, i32* %1, align 4
  store i32 0, i32* %6, align 4
  store i32 0, i32* %7, align 4
  %13 = bitcast [26 x i32]* %10 to i8*
  call void @llvm.memset.p0i8.i64(i8* align 16 %13, i8 0, i64 104, i1 false)
  %14 = bitcast [27 x i8]* %11 to i8*
  call void @llvm.memcpy.p0i8.p0i8.i64(i8* align 16 %14, i8* align 16 getelementptr inbounds ([27 x i8], [27 x i8]* @__const.main.c, i32 0, i32 0), i64 27, i1 false)
  %15 = call i32 (i8*, ...) @__isoc99_scanf(i8* getelementptr inbounds ([3 x i8], [3 x i8]* @.str, i64 0, i64 0), i32* %2)
  store i32 0, i32* %3, align 4
  br label %16

16:                                               ; preds = %62, %0
  %17 = load i32, i32* %3, align 4
  %18 = load i32, i32* %2, align 4
  %19 = icmp slt i32 %17, %18
  br i1 %19, label %20, label %65

20:                                               ; preds = %16
  %21 = load i32, i32* %3, align 4
  %22 = sext i32 %21 to i64
  %23 = getelementptr inbounds [1000 x %struct.as], [1000 x %struct.as]* %12, i64 0, i64 %22
  %24 = getelementptr inbounds %struct.as, %struct.as* %23, i32 0, i32 0
  %25 = load i32, i32* %3, align 4
  %26 = sext i32 %25 to i64
  %27 = getelementptr inbounds [1000 x %struct.as], [1000 x %struct.as]* %12, i64 0, i64 %26
  %28 = getelementptr inbounds %struct.as, %struct.as* %27, i32 0, i32 1
  %29 = getelementptr inbounds [26 x i8], [26 x i8]* %28, i64 0, i64 0
  %30 = call i32 (i8*, ...) @__isoc99_scanf(i8* getelementptr inbounds ([6 x i8], [6 x i8]* @.str.1, i64 0, i64 0), i32* %24, i8* %29)
  %31 = load i32, i32* %3, align 4
  %32 = sext i32 %31 to i64
  %33 = getelementptr inbounds [1000 x %struct.as], [1000 x %struct.as]* %12, i64 0, i64 %32
  %34 = getelementptr inbounds %struct.as, %struct.as* %33, i32 0, i32 1
  %35 = getelementptr inbounds [26 x i8], [26 x i8]* %34, i64 0, i64 0
  %36 = call i64 @strlen(i8* %35) #4
  %37 = trunc i64 %36 to i32
  store i32 %37, i32* %7, align 4
  store i32 0, i32* %5, align 4
  br label %38

38:                                               ; preds = %58, %20
  %39 = load i32, i32* %5, align 4
  %40 = load i32, i32* %7, align 4
  %41 = icmp slt i32 %39, %40
  br i1 %41, label %42, label %61

42:                                               ; preds = %38
  %43 = load i32, i32* %3, align 4
  %44 = sext i32 %43 to i64
  %45 = getelementptr inbounds [1000 x %struct.as], [1000 x %struct.as]* %12, i64 0, i64 %44
  %46 = getelementptr inbounds %struct.as, %struct.as* %45, i32 0, i32 1
  %47 = load i32, i32* %5, align 4
  %48 = sext i32 %47 to i64
  %49 = getelementptr inbounds [26 x i8], [26 x i8]* %46, i64 0, i64 %48
  %50 = load i8, i8* %49, align 1
  %51 = sext i8 %50 to i32
  %52 = sub nsw i32 %51, 65
  store i32 %52, i32* %8, align 4
  %53 = load i32, i32* %8, align 4
  %54 = sext i32 %53 to i64
  %55 = getelementptr inbounds [26 x i32], [26 x i32]* %10, i64 0, i64 %54
  %56 = load i32, i32* %55, align 4
  %57 = add nsw i32 %56, 1
  store i32 %57, i32* %55, align 4
  br label %58

58:                                               ; preds = %42
  %59 = load i32, i32* %5, align 4
  %60 = add nsw i32 %59, 1
  store i32 %60, i32* %5, align 4
  br label %38

61:                                               ; preds = %38
  br label %62

62:                                               ; preds = %61
  %63 = load i32, i32* %3, align 4
  %64 = add nsw i32 %63, 1
  store i32 %64, i32* %3, align 4
  br label %16

65:                                               ; preds = %16
  store i32 0, i32* %9, align 4
  store i32 0, i32* %4, align 4
  br label %66

66:                                               ; preds = %83, %65
  %67 = load i32, i32* %4, align 4
  %68 = icmp slt i32 %67, 25
  br i1 %68, label %69, label %86

69:                                               ; preds = %66
  %70 = load i32, i32* %9, align 4
  %71 = load i32, i32* %4, align 4
  %72 = sext i32 %71 to i64
  %73 = getelementptr inbounds [26 x i32], [26 x i32]* %10, i64 0, i64 %72
  %74 = load i32, i32* %73, align 4
  %75 = icmp slt i32 %70, %74
  br i1 %75, label %76, label %82

76:                                               ; preds = %69
  %77 = load i32, i32* %4, align 4
  %78 = sext i32 %77 to i64
  %79 = getelementptr inbounds [26 x i32], [26 x i32]* %10, i64 0, i64 %78
  %80 = load i32, i32* %79, align 4
  store i32 %80, i32* %9, align 4
  %81 = load i32, i32* %4, align 4
  store i32 %81, i32* %6, align 4
  br label %82

82:                                               ; preds = %76, %69
  br label %83

83:                                               ; preds = %82
  %84 = load i32, i32* %4, align 4
  %85 = add nsw i32 %84, 1
  store i32 %85, i32* %4, align 4
  br label %66

86:                                               ; preds = %66
  %87 = load i32, i32* %6, align 4
  %88 = sext i32 %87 to i64
  %89 = getelementptr inbounds [27 x i8], [27 x i8]* %11, i64 0, i64 %88
  %90 = load i8, i8* %89, align 1
  %91 = sext i8 %90 to i32
  %92 = call i32 (i8*, ...) @printf(i8* getelementptr inbounds ([4 x i8], [4 x i8]* @.str.2, i64 0, i64 0), i32 %91)
  %93 = load i32, i32* %9, align 4
  %94 = call i32 (i8*, ...) @printf(i8* getelementptr inbounds ([4 x i8], [4 x i8]* @.str.3, i64 0, i64 0), i32 %93)
  store i32 0, i32* %3, align 4
  br label %95

95:                                               ; preds = %139, %86
  %96 = load i32, i32* %3, align 4
  %97 = load i32, i32* %2, align 4
  %98 = icmp slt i32 %96, %97
  br i1 %98, label %99, label %142

99:                                               ; preds = %95
  %100 = load i32, i32* %3, align 4
  %101 = sext i32 %100 to i64
  %102 = getelementptr inbounds [1000 x %struct.as], [1000 x %struct.as]* %12, i64 0, i64 %101
  %103 = getelementptr inbounds %struct.as, %struct.as* %102, i32 0, i32 1
  %104 = getelementptr inbounds [26 x i8], [26 x i8]* %103, i64 0, i64 0
  %105 = call i64 @strlen(i8* %104) #4
  %106 = trunc i64 %105 to i32
  store i32 %106, i32* %7, align 4
  store i32 0, i32* %5, align 4
  br label %107

107:                                              ; preds = %135, %99
  %108 = load i32, i32* %5, align 4
  %109 = load i32, i32* %7, align 4
  %110 = icmp slt i32 %108, %109
  br i1 %110, label %111, label %138

111:                                              ; preds = %107
  %112 = load i32, i32* %3, align 4
  %113 = sext i32 %112 to i64
  %114 = getelementptr inbounds [1000 x %struct.as], [1000 x %struct.as]* %12, i64 0, i64 %113
  %115 = getelementptr inbounds %struct.as, %struct.as* %114, i32 0, i32 1
  %116 = load i32, i32* %5, align 4
  %117 = sext i32 %116 to i64
  %118 = getelementptr inbounds [26 x i8], [26 x i8]* %115, i64 0, i64 %117
  %119 = load i8, i8* %118, align 1
  %120 = sext i8 %119 to i32
  %121 = load i32, i32* %6, align 4
  %122 = sext i32 %121 to i64
  %123 = getelementptr inbounds [27 x i8], [27 x i8]* %11, i64 0, i64 %122
  %124 = load i8, i8* %123, align 1
  %125 = sext i8 %124 to i32
  %126 = icmp eq i32 %120, %125
  br i1 %126, label %127, label %134

127:                                              ; preds = %111
  %128 = load i32, i32* %3, align 4
  %129 = sext i32 %128 to i64
  %130 = getelementptr inbounds [1000 x %struct.as], [1000 x %struct.as]* %12, i64 0, i64 %129
  %131 = getelementptr inbounds %struct.as, %struct.as* %130, i32 0, i32 0
  %132 = load i32, i32* %131, align 16
  %133 = call i32 (i8*, ...) @printf(i8* getelementptr inbounds ([4 x i8], [4 x i8]* @.str.3, i64 0, i64 0), i32 %132)
  br label %134

134:                                              ; preds = %127, %111
  br label %135

135:                                              ; preds = %134
  %136 = load i32, i32* %5, align 4
  %137 = add nsw i32 %136, 1
  store i32 %137, i32* %5, align 4
  br label %107

138:                                              ; preds = %107
  br label %139

139:                                              ; preds = %138
  %140 = load i32, i32* %3, align 4
  %141 = add nsw i32 %140, 1
  store i32 %141, i32* %3, align 4
  br label %95

142:                                              ; preds = %95
  ret i32 0
}

; Function Attrs: argmemonly nounwind willreturn
declare void @llvm.memset.p0i8.i64(i8* nocapture writeonly, i8, i64, i1 immarg) #1

; Function Attrs: argmemonly nounwind willreturn
declare void @llvm.memcpy.p0i8.p0i8.i64(i8* noalias nocapture writeonly, i8* noalias nocapture readonly, i64, i1 immarg) #1

declare dso_local i32 @__isoc99_scanf(i8*, ...) #2

; Function Attrs: nounwind readonly
declare dso_local i64 @strlen(i8*) #3

declare dso_local i32 @printf(i8*, ...) #2


!llvm.module.flags = !{!0}
!llvm.ident = !{!1}

!0 = !{i32 1, !"wchar_size", i32 4}
!1 = !{!"clang version 10.0.0-4ubuntu1 "}
